; Function Attrs: mustprogress nounwind uwtable
define dso_local void @_ZN4node17IntervalHistogram4StopERKN2v820FunctionCallbackInfoINS1_5ValueEEE(ptr nocapture noundef nonnull readonly align 8 dereferenceable(20) %args) #3 align 2 {
entry:
  %0 = load ptr, ptr %args, align 8
  %1 = load i64, ptr %0, align 8
  %sub.i41.i = add i64 %1, -1
  %2 = inttoptr i64 %sub.i41.i to ptr
  %3 = load i64, ptr %2, align 8
  %sub.i35.i = add i64 %3, 11
  %4 = inttoptr i64 %sub.i35.i to ptr
  %5 = load i16, ptr %4, align 2
  %conv.i.i = zext i16 %5 to i32
  %cmp.i.i = icmp eq i16 %5, 1040
  %sub.i.i = add nsw i32 %conv.i.i, -1057
  %cmp1.i.i = icmp ult i32 %sub.i.i, 1002
  %6 = select i1 %cmp.i.i, i1 true, i1 %cmp1.i.i
  br i1 %6, label %if.then.i.i, label %if.end.i.i

if.then.i.i:                                      ; preds = %entry
  %sub.i47.i = add i64 %1, 31
  %7 = inttoptr i64 %sub.i47.i to ptr
  %8 = load i64, ptr %7, align 8
  %9 = inttoptr i64 %8 to ptr
  br label %_ZN4node10BaseObject12FromJSObjectEN2v85LocalINS1_5ValueEEE.exit

if.end.i.i:                                       ; preds = %entry
  %call7.i.i = tail call noundef ptr @_ZN2v86Object38SlowGetAlignedPointerFromInternalFieldEi(ptr noundef nonnull align 1 dereferenceable(1) %0, i32 noundef 1) #15
  br label %_ZN4node10BaseObject12FromJSObjectEN2v85LocalINS1_5ValueEEE.exit

_ZN4node10BaseObject12FromJSObjectEN2v85LocalINS1_5ValueEEE.exit: ; preds = %if.then.i.i, %if.end.i.i
  %retval.i11.0.i = phi ptr [ %9, %if.then.i.i ], [ %call7.i.i, %if.end.i.i ]
  %cmp = icmp eq ptr %retval.i11.0.i, null
  br i1 %cmp, label %return, label %do.end

do.end:                                           ; preds = %_ZN4node10BaseObject12FromJSObjectEN2v85LocalINS1_5ValueEEE.exit
  %enabled_.i = getelementptr inbounds i8, ptr %retval.i11.0.i, i64 104
  %10 = load i8, ptr %enabled_.i, align 8
  %11 = and i8 %10, 1
  %tobool.not.i = icmp eq i8 %11, 0
  br i1 %tobool.not.i, label %return, label %lor.lhs.false.i

lor.lhs.false.i:                                  ; preds = %do.end
  %state_.i.i = getelementptr inbounds i8, ptr %retval.i11.0.i, i64 56
  %12 = load i32, ptr %state_.i.i, align 8
  %13 = add i32 %12, -1
  %spec.select.i.i = icmp ult i32 %13, 2
  br i1 %spec.select.i.i, label %return, label %if.end.i

if.end.i:                                         ; preds = %lor.lhs.false.i
  store i8 0, ptr %enabled_.i, align 8
  %timer_.i = getelementptr inbounds i8, ptr %retval.i11.0.i, i64 144
  %call3.i = tail call i32 @uv_timer_stop(ptr noundef nonnull %timer_.i) #15
  br label %return

return:                                           ; preds = %if.end.i, %lor.lhs.false.i, %do.end, %_ZN4node10BaseObject12FromJSObjectEN2v85LocalINS1_5ValueEEE.exit
  ret void
}